ARM GAS  C:\Users\ilyap\AppData\Local\Temp\ccciX5uS.s 			page 1


   1              		.syntax unified
   2              		.cpu cortex-m3
   3              		.fpu softvfp
   4              		.eabi_attribute 20, 1
   5              		.eabi_attribute 21, 1
   6              		.eabi_attribute 23, 3
   7              		.eabi_attribute 24, 1
   8              		.eabi_attribute 25, 1
   9              		.eabi_attribute 26, 1
  10              		.eabi_attribute 30, 1
  11              		.eabi_attribute 34, 1
  12              		.eabi_attribute 18, 4
  13              		.thumb
  14              		.syntax unified
  15              		.file	"main.c"
  16              		.text
  17              	.Ltext0:
  18              		.cfi_sections	.debug_frame
  19              		.section	.text.zmain,"ax",%progbits
  20              		.align	2
  21              		.global	zmain
  22              		.thumb
  23              		.thumb_func
  24              		.type	zmain, %function
  25              	zmain:
  26              	.LFB85:
  27              		.file 1 "main.c"
   1:main.c        **** /**
   2:main.c        **** * @mainpage ZumoBot Project
   3:main.c        **** * @brief    You can make your own ZumoBot with various sensors.
   4:main.c        **** * @details  <br><br>
   5:main.c        ****     <p>
   6:main.c        ****     <B>General</B><br>
   7:main.c        ****     You will use Pololu Zumo Shields for your robot project with CY8CKIT-059(PSoC 5LP) from Cypress
   8:main.c        ****     library has basic methods of various sensors and communications so that you can make what you w
   9:main.c        ****     <br><br>
  10:main.c        ****     </p>
  11:main.c        ****     
  12:main.c        ****     <p>
  13:main.c        ****     <B>Sensors</B><br>
  14:main.c        ****     &nbsp;Included: <br>
  15:main.c        ****         &nbsp;&nbsp;&nbsp;&nbsp;LSM303D: Accelerometer & Magnetometer<br>
  16:main.c        ****         &nbsp;&nbsp;&nbsp;&nbsp;L3GD20H: Gyroscope<br>
  17:main.c        ****         &nbsp;&nbsp;&nbsp;&nbsp;Reflectance sensor<br>
  18:main.c        ****         &nbsp;&nbsp;&nbsp;&nbsp;Motors
  19:main.c        ****     &nbsp;Wii nunchuck<br>
  20:main.c        ****     &nbsp;TSOP-2236: IR Receiver<br>
  21:main.c        ****     &nbsp;HC-SR04: Ultrasonic sensor<br>
  22:main.c        ****     &nbsp;APDS-9301: Ambient light sensor<br>
  23:main.c        ****     &nbsp;IR LED <br><br><br>
  24:main.c        ****     </p>
  25:main.c        ****     
  26:main.c        ****     <p>
  27:main.c        ****     <B>Communication</B><br>
  28:main.c        ****     I2C, UART, Serial<br>
  29:main.c        ****     </p>
  30:main.c        **** */
ARM GAS  C:\Users\ilyap\AppData\Local\Temp\ccciX5uS.s 			page 2


  31:main.c        **** 
  32:main.c        **** #include <project.h>
  33:main.c        **** #include <stdio.h>
  34:main.c        **** #include <stdlib.h>
  35:main.c        **** #include "FreeRTOS.h"
  36:main.c        **** #include "task.h"
  37:main.c        **** #include "Motor.h"
  38:main.c        **** #include "Ultra.h"
  39:main.c        **** #include "Nunchuk.h"
  40:main.c        **** #include "Reflectance.h"
  41:main.c        **** #include "Gyro.h"
  42:main.c        **** #include "Accel_magnet.h"
  43:main.c        **** #include "LSM303D.h"
  44:main.c        **** #include "IR.h"
  45:main.c        **** #include "Beep.h"
  46:main.c        **** #include "mqtt_sender.h"
  47:main.c        **** #include <time.h>
  48:main.c        **** #include <sys/time.h>
  49:main.c        **** #include "serial1.h"
  50:main.c        **** #include <unistd.h>
  51:main.c        **** /**
  52:main.c        ****  * @file    main.c
  53:main.c        ****  * @brief   
  54:main.c        ****  * @details  ** Enable global interrupt since Zumo library uses interrupts. **<br>&nbsp;&nbsp;&nbsp
  55:main.c        **** */
  56:main.c        **** 
  57:main.c        **** #if 0
  58:main.c        **** //template
  59:main.c        **** void zmain(void){
  60:main.c        ****     
  61:main.c        ****     while(true)
  62:main.c        ****     {
  63:main.c        ****         BatteryLed_Write(!SW1_Read());
  64:main.c        ****         vTaskDelay(100);
  65:main.c        ****     }
  66:main.c        **** }
  67:main.c        **** #endif
  68:main.c        **** 
  69:main.c        **** #if 0
  70:main.c        **** // Beep light test
  71:main.c        **** void zmain(void)
  72:main.c        **** {
  73:main.c        ****     while(true)
  74:main.c        ****     {
  75:main.c        ****         if ((SW1_Read() == 0)){
  76:main.c        ****             for(int i = 0; i < 3; i++){
  77:main.c        ****                 BatteryLed_Write(1);
  78:main.c        ****                 Beep(750, 30);
  79:main.c        ****                 vTaskDelay(500);
  80:main.c        ****                 BatteryLed_Write(0);
  81:main.c        ****                 vTaskDelay(500);
  82:main.c        ****             }
  83:main.c        ****             for(int i = 0; i<3; i++){
  84:main.c        ****                 BatteryLed_Write(1);
  85:main.c        ****                 Beep(750, 30);
  86:main.c        ****                 vTaskDelay(1000);
  87:main.c        ****                 BatteryLed_Write(0);
ARM GAS  C:\Users\ilyap\AppData\Local\Temp\ccciX5uS.s 			page 3


  88:main.c        ****                 vTaskDelay(500);
  89:main.c        ****             }
  90:main.c        ****             for(int i = 0; i < 3; i++){
  91:main.c        ****                 BatteryLed_Write(1);
  92:main.c        ****                 Beep(750, 30);
  93:main.c        ****                 vTaskDelay(500);
  94:main.c        ****                 BatteryLed_Write(0);
  95:main.c        ****                 vTaskDelay(500);
  96:main.c        ****             }
  97:main.c        ****         }
  98:main.c        ****     }
  99:main.c        ****     
 100:main.c        ****     
 101:main.c        ****  }   
 102:main.c        **** #endif
 103:main.c        **** 
 104:main.c        **** #if 0
 105:main.c        **** // Name and age
 106:main.c        **** void zmain(void)
 107:main.c        **** {
 108:main.c        ****     TickType_t start;
 109:main.c        ****     TickType_t end;
 110:main.c        ****     char name[32];
 111:main.c        ****     int age;
 112:main.c        ****     
 113:main.c        ****     
 114:main.c        ****     printf("\n\n");
 115:main.c        ****     
 116:main.c        ****     printf("Enter your name: ");
 117:main.c        ****     //fflush(stdout);
 118:main.c        ****     start = xTaskGetTickCount();
 119:main.c        ****     scanf("%s", name);
 120:main.c        ****     printf("Enter your age: ");
 121:main.c        ****     //fflush(stdout);
 122:main.c        ****     scanf("%d", &age);
 123:main.c        ****     end = xTaskGetTickCount();
 124:main.c        ****     printf("You are [%s], age = %d\n", name, age);
 125:main.c        ****     if (age <= 21){
 126:main.c        ****         if(end-start < 300){
 127:main.c        ****             printf("Super fast dude!");
 128:main.c        ****         }
 129:main.c        ****         else if((end-start >= 300)&&(end-start <=500)){
 130:main.c        ****             printf("So mediocre.");
 131:main.c        ****         }
 132:main.c        ****         else{
 133:main.c        ****             printf("My granny is faster than you!");
 134:main.c        ****         }
 135:main.c        ****     }
 136:main.c        ****     else if((age >= 22)&&(age<=50)){
 137:main.c        ****         if(end-start < 3){
 138:main.c        ****             printf("Be quick or be dead");
 139:main.c        ****         }
 140:main.c        ****         else if((end-start >= 300)&&(end-start <=500)){
 141:main.c        ****             printf("You're so average.");
 142:main.c        ****         }
 143:main.c        ****         else{
 144:main.c        ****             printf("Have you been smoking something illegal?");
ARM GAS  C:\Users\ilyap\AppData\Local\Temp\ccciX5uS.s 			page 4


 145:main.c        ****         }
 146:main.c        ****     }
 147:main.c        ****     else{
 148:main.c        ****         if(end-start <= 300){
 149:main.c        ****             printf("Still going strong");
 150:main.c        ****         }
 151:main.c        ****         else if((end-start >= 4)&&(end-start <=5)){
 152:main.c        ****             printf("You are doing ok for your age.");
 153:main.c        ****         }
 154:main.c        ****         else{
 155:main.c        ****             printf("Do they still allow you to drive?");
 156:main.c        ****         }
 157:main.c        ****     }
 158:main.c        ****     while(true)
 159:main.c        ****     {
 160:main.c        ****         BatteryLed_Write(!SW1_Read());
 161:main.c        ****         vTaskDelay(100);
 162:main.c        ****     }
 163:main.c        ****  }   
 164:main.c        **** #endif
 165:main.c        **** 
 166:main.c        **** 
 167:main.c        **** #if 0
 168:main.c        **** //battery level//
 169:main.c        **** void zmain(void)
 170:main.c        **** {
 171:main.c        **** 	ADC_Battery_Start();   	 
 172:main.c        **** 
 173:main.c        **** 	int16 adcresult =0;
 174:main.c        **** 	float volts = 0.0;
 175:main.c        **** 
 176:main.c        **** 	printf("\nBoot\n");
 177:main.c        **** 
 178:main.c        **** 	//BatteryLed_Write(1); // Switch led on
 179:main.c        **** 	//BatteryLed_Write(0); // Switch led off
 180:main.c        **** 	//uint8 button;
 181:main.c        **** 	//button = SW1_Read(); // read SW1 on pSoC board
 182:main.c        **** 	// SW1_Read() returns zero when button is pressed
 183:main.c        **** 	// SW1_Read() returns one when button is not pressed
 184:main.c        **** 
 185:main.c        **** 	while(true)
 186:main.c        **** 	{
 187:main.c        ****     	char msg[80];
 188:main.c        ****     	ADC_Battery_StartConvert(); // start sampling
 189:main.c        ****     	if(ADC_Battery_IsEndConversion(ADC_Battery_WAIT_FOR_RESULT)) {   // wait for ADC converted val
 190:main.c        ****         	adcresult = ADC_Battery_GetResult16(); // get the ADC value (0 - 4095)
 191:main.c        ****         	volts=(adcresult*5/4095)*(30/20);
 192:main.c        ****         	// convert value to Volts
 193:main.c        ****         	// you need to implement the conversion
 194:main.c        ****        	 
 195:main.c        ****         	// Print both ADC results and converted value
 196:main.c        ****         	printf("%d %f\r\n",adcresult, volts);
 197:main.c        ****        	 
 198:main.c        ****     	if (volts<4){
 199:main.c        ****         	while(SW1_Read()){
 200:main.c        ****             	BatteryLed_Write(1);
 201:main.c        ****             	vTaskDelay(500);
ARM GAS  C:\Users\ilyap\AppData\Local\Temp\ccciX5uS.s 			page 5


 202:main.c        ****             	BatteryLed_Write(0);
 203:main.c        ****             	vTaskDelay(500);
 204:main.c        ****         	}
 205:main.c        ****     	}
 206:main.c        ****     	}
 207:main.c        ****     	vTaskDelay(500);
 208:main.c        **** 	}
 209:main.c        ****  }  
 210:main.c        **** 
 211:main.c        ****    
 212:main.c        **** #endif
 213:main.c        **** 
 214:main.c        **** #if 0
 215:main.c        **** // button
 216:main.c        **** void zmain(void)
 217:main.c        **** {
 218:main.c        ****     while(true) {
 219:main.c        ****         printf("Press button within 5 seconds!\n");
 220:main.c        ****         int i = 50;
 221:main.c        ****         while(i > 0) {
 222:main.c        ****             if(SW1_Read() == 0) {
 223:main.c        ****                 break;
 224:main.c        ****             }
 225:main.c        ****             vTaskDelay(100);
 226:main.c        ****             --i;
 227:main.c        ****         }
 228:main.c        ****         if(i > 0) {
 229:main.c        ****             printf("Good work\n");
 230:main.c        ****             while(SW1_Read() == 0) vTaskDelay(10); // wait until button is released
 231:main.c        ****         }
 232:main.c        ****         else {
 233:main.c        ****             printf("You didn't press the button\n");
 234:main.c        ****         }
 235:main.c        ****     }
 236:main.c        **** }
 237:main.c        **** #endif
 238:main.c        **** 
 239:main.c        **** #if 0
 240:main.c        **** // button
 241:main.c        **** void zmain(void)
 242:main.c        **** {
 243:main.c        ****     printf("\nBoot\n");
 244:main.c        **** 
 245:main.c        ****     //BatteryLed_Write(1); // Switch led on 
 246:main.c        ****     BatteryLed_Write(0); // Switch led off 
 247:main.c        ****     
 248:main.c        ****     //uint8 button;
 249:main.c        ****     //button = SW1_Read(); // read SW1 on pSoC board
 250:main.c        ****     // SW1_Read() returns zero when button is pressed
 251:main.c        ****     // SW1_Read() returns one when button is not pressed
 252:main.c        ****     
 253:main.c        ****     bool led = false;
 254:main.c        ****     
 255:main.c        ****     while(true)
 256:main.c        ****     {
 257:main.c        ****         // toggle led state when button is pressed
 258:main.c        ****         if(SW1_Read() == 0) {
ARM GAS  C:\Users\ilyap\AppData\Local\Temp\ccciX5uS.s 			page 6


 259:main.c        ****             led = !led;
 260:main.c        ****             BatteryLed_Write(led);
 261:main.c        ****             if(led) printf("Led is ON\n");
 262:main.c        ****             else printf("Led is OFF\n");
 263:main.c        ****             Beep(1000, 150);
 264:main.c        ****             while(SW1_Read() == 0) vTaskDelay(10); // wait while button is being pressed
 265:main.c        ****         }        
 266:main.c        ****     }
 267:main.c        ****  }   
 268:main.c        **** #endif
 269:main.c        **** 
 270:main.c        **** #if 0
 271:main.c        ****     void tankturn_left(uint8 speed_left, uint8 speed_right, int delay);
 272:main.c        ****     
 273:main.c        **** void zmain(void)
 274:main.c        **** {
 275:main.c        ****     Ultra_Start();
 276:main.c        ****     motor_start(0,0);
 277:main.c        ****     motor_forward(0,0);
 278:main.c        ****     
 279:main.c        ****     vTaskDelay(3000);
 280:main.c        ****     
 281:main.c        ****     while(true){
 282:main.c        ****     int distance = Ultra_GetDistance();
 283:main.c        ****     
 284:main.c        ****     if(distance <= 10 && distance !=0){
 285:main.c        ****         motor_backward(50,500);
 286:main.c        ****         Beep(150, 200);
 287:main.c        ****         motor_turn(150,150, 500);
 288:main.c        ****         motor_forward(0,0);
 289:main.c        ****      }
 290:main.c        ****     motor_turn(200,100,50);
 291:main.c        ****     }   
 292:main.c        **** }
 293:main.c        **** #endif
 294:main.c        **** 
 295:main.c        **** #if 0
 296:main.c        **** //ultrasonic sensor//
 297:main.c        **** void zmain(void)
 298:main.c        **** {
 299:main.c        ****     Ultra_Start();                          // Ultra Sonic Start function
 300:main.c        ****     
 301:main.c        ****     while(true) {
 302:main.c        ****         int d = Ultra_GetDistance();
 303:main.c        ****         // Print the detected distance (centimeters)
 304:main.c        ****         printf("distance = %d\r\n", d);
 305:main.c        ****         vTaskDelay(200);
 306:main.c        ****     }
 307:main.c        **** }   
 308:main.c        **** #endif
 309:main.c        **** 
 310:main.c        **** #if 0
 311:main.c        **** //IR receiverm - how to wait for IR remote commands
 312:main.c        **** void zmain(void)
 313:main.c        **** {
 314:main.c        ****     uint8_t button_;
 315:main.c        ****     printf("\nStart\n");
ARM GAS  C:\Users\ilyap\AppData\Local\Temp\ccciX5uS.s 			page 7


 316:main.c        ****     
 317:main.c        ****     while(true){
 318:main.c        ****         button_ = SW1_Read();
 319:main.c        ****         if(button_==0){
 320:main.c        ****             IR_Start();
 321:main.c        ****             printf("\n\nIR test\n");
 322:main.c        ****             struct sensors_ ref;
 323:main.c        ****             struct sensors_ dig;
 324:main.c        ****             bool led = false,loop = true, startline= true;
 325:main.c        ****             int count =0;
 326:main.c        ****             motor_start();              // enable motor controller 
 327:main.c        ****             IR_flush(); // clear IR receive buffer
 328:main.c        ****             printf("Buffer cleared\n");
 329:main.c        ****             
 330:main.c        ****             reflectance_start();
 331:main.c        ****             reflectance_set_threshold(9000, 9000, 11000, 11000, 9000, 9000); // set center sensor t
 332:main.c        ****             vTaskDelay(200);
 333:main.c        ****                 while(startline){
 334:main.c        ****                     // read raw sensor values
 335:main.c        ****                     reflectance_read(&ref);
 336:main.c        ****                     reflectance_digital(&dig); 
 337:main.c        ****                     if(dig.l3 != 1 && dig.r3 != 1){
 338:main.c        ****                         motor_turn(50,50,50);       // motor forward
 339:main.c        ****                         Beep(60,80);
 340:main.c        ****                     }
 341:main.c        ****                     else{
 342:main.c        ****                         motor_forward(0,0);       // Stop motors
 343:main.c        ****                         startline = false;
 344:main.c        ****                     }
 345:main.c        ****                 }
 346:main.c        ****             IR_wait();  // wait for IR command
 347:main.c        ****             led = !led;
 348:main.c        ****             BatteryLed_Write(led);   
 349:main.c        ****             
 350:main.c        ****             // Toggle led when IR signal is received
 351:main.c        ****             while(loop)
 352:main.c        ****             {   
 353:main.c        ****                 if(led){
 354:main.c        ****                     // read raw sensor values
 355:main.c        ****                     reflectance_read(&ref);
 356:main.c        ****                     reflectance_digital(&dig); 
 357:main.c        ****                     
 358:main.c        ****                     if(dig.l3 == 1 && dig.r3 == 1 ){
 359:main.c        ****                         motor_turn(50,50,50);       // motor forward
 360:main.c        ****                         vTaskDelay(50);
 361:main.c        ****                         count++;
 362:main.c        ****                         printf("count %d \n",count);
 363:main.c        ****                         if(count >= 7){
 364:main.c        ****                             motor_forward(0,0);       // Stop motors
 365:main.c        ****                             loop = false;
 366:main.c        ****                         }
 367:main.c        ****                     }
 368:main.c        ****                     else{
 369:main.c        ****                          motor_turn(50,50,50);       // motor forward
 370:main.c        ****                         Beep(100,100);
 371:main.c        ****                     }
 372:main.c        ****                 }
ARM GAS  C:\Users\ilyap\AppData\Local\Temp\ccciX5uS.s 			page 8


 373:main.c        ****                 else {
 374:main.c        ****                     printf("Led is OFF\n");
 375:main.c        ****                     loop = false;
 376:main.c        ****                 }
 377:main.c        ****                
 378:main.c        ****             }    
 379:main.c        ****         }
 380:main.c        ****     }
 381:main.c        ****  }   
 382:main.c        **** #endif
 383:main.c        **** 
 384:main.c        **** 
 385:main.c        **** #if 1
 386:main.c        **** //IR receiverm - how to wait for IR remote commands
 387:main.c        **** void zmain(void)
 388:main.c        **** {
  28              		.loc 1 388 0
  29              		.cfi_startproc
  30              		@ args = 0, pretend = 0, frame = 24
  31              		@ frame_needed = 0, uses_anonymous_args = 0
  32 0000 70B5     		push	{r4, r5, r6, lr}
  33              		.cfi_def_cfa_offset 16
  34              		.cfi_offset 4, -16
  35              		.cfi_offset 5, -12
  36              		.cfi_offset 6, -8
  37              		.cfi_offset 14, -4
  38 0002 88B0     		sub	sp, sp, #32
  39              		.cfi_def_cfa_offset 48
 389:main.c        ****     uint8_t button_;
 390:main.c        ****     printf("\nStart\n");
  40              		.loc 1 390 0
  41 0004 5C48     		ldr	r0, .L17
  42 0006 FFF7FEFF 		bl	puts
  43              	.LVL0:
  44              	.L2:
 391:main.c        ****     
 392:main.c        ****     while(true){
 393:main.c        ****         button_ = SW1_Read();
  45              		.loc 1 393 0
  46 000a FFF7FEFF 		bl	SW1_Read
  47              	.LVL1:
 394:main.c        ****         if(button_==0){
  48              		.loc 1 394 0
  49 000e 0028     		cmp	r0, #0
  50 0010 FBD1     		bne	.L2
  51              	.LBB2:
 395:main.c        ****             IR_Start();
  52              		.loc 1 395 0
  53 0012 FFF7FEFF 		bl	IR_Start
  54              	.LVL2:
 396:main.c        ****             printf("\n\nIR test\n");
  55              		.loc 1 396 0
  56 0016 5948     		ldr	r0, .L17+4
  57 0018 FFF7FEFF 		bl	puts
  58              	.LVL3:
 397:main.c        ****             struct sensors_ ref;
 398:main.c        ****             struct sensors_ dig;
ARM GAS  C:\Users\ilyap\AppData\Local\Temp\ccciX5uS.s 			page 9


 399:main.c        ****             bool led = false,loop = true, startline= true;
 400:main.c        ****             int count =0;
 401:main.c        ****             motor_start();              // enable motor controller 
  59              		.loc 1 401 0
  60 001c FFF7FEFF 		bl	motor_start
  61              	.LVL4:
 402:main.c        ****             IR_flush(); // clear IR receive buffer
  62              		.loc 1 402 0
  63 0020 FFF7FEFF 		bl	IR_flush
  64              	.LVL5:
 403:main.c        ****             printf("Buffer cleared\n");
  65              		.loc 1 403 0
  66 0024 5648     		ldr	r0, .L17+8
  67 0026 FFF7FEFF 		bl	puts
  68              	.LVL6:
 404:main.c        ****             
 405:main.c        ****             reflectance_start();
  69              		.loc 1 405 0
  70 002a FFF7FEFF 		bl	reflectance_start
  71              	.LVL7:
 406:main.c        ****             reflectance_set_threshold(9000, 9000, 11000, 11000, 9000, 9000); // set center sensor t
  72              		.loc 1 406 0
  73 002e 42F22830 		movw	r0, #9000
  74 0032 0190     		str	r0, [sp, #4]
  75 0034 0090     		str	r0, [sp]
  76 0036 42F6F823 		movw	r3, #11000
  77 003a 1A46     		mov	r2, r3
  78 003c 0146     		mov	r1, r0
  79 003e FFF7FEFF 		bl	reflectance_set_threshold
  80              	.LVL8:
 407:main.c        ****             vTaskDelay(200);
  81              		.loc 1 407 0
  82 0042 C820     		movs	r0, #200
  83 0044 FFF7FEFF 		bl	vTaskDelay
  84              	.LVL9:
 399:main.c        ****             int count =0;
  85              		.loc 1 399 0
  86 0048 0124     		movs	r4, #1
 408:main.c        ****                 while(startline){
  87              		.loc 1 408 0
  88 004a 1CE0     		b	.L3
  89              	.LVL10:
  90              	.L6:
 409:main.c        ****                     // read raw sensor values
 410:main.c        ****                     reflectance_read(&ref);
  91              		.loc 1 410 0
  92 004c 02A8     		add	r0, sp, #8
  93 004e FFF7FEFF 		bl	reflectance_read
  94              	.LVL11:
 411:main.c        ****                     reflectance_digital(&dig); 
  95              		.loc 1 411 0
  96 0052 05A8     		add	r0, sp, #20
  97 0054 FFF7FEFF 		bl	reflectance_digital
  98              	.LVL12:
 412:main.c        ****                     if(dig.l3 != 1 && dig.r3 != 1){
  99              		.loc 1 412 0
 100 0058 BDF81430 		ldrh	r3, [sp, #20]
ARM GAS  C:\Users\ilyap\AppData\Local\Temp\ccciX5uS.s 			page 10


 101 005c 012B     		cmp	r3, #1
 102 005e 0DD0     		beq	.L4
 103              		.loc 1 412 0 is_stmt 0 discriminator 1
 104 0060 BDF81E30 		ldrh	r3, [sp, #30]
 105 0064 012B     		cmp	r3, #1
 106 0066 09D0     		beq	.L4
 413:main.c        ****                         motor_turn(50,50,50);       // motor forward
 107              		.loc 1 413 0 is_stmt 1
 108 0068 3222     		movs	r2, #50
 109 006a 1146     		mov	r1, r2
 110 006c 1046     		mov	r0, r2
 111 006e FFF7FEFF 		bl	motor_turn
 112              	.LVL13:
 414:main.c        ****                         Beep(30,30);
 113              		.loc 1 414 0
 114 0072 1E21     		movs	r1, #30
 115 0074 0846     		mov	r0, r1
 116 0076 FFF7FEFF 		bl	Beep
 117              	.LVL14:
 118 007a 04E0     		b	.L3
 119              	.L4:
 415:main.c        ****                     }
 416:main.c        ****                     else{
 417:main.c        ****                         motor_forward(0,0);       // Stop motors
 120              		.loc 1 417 0
 121 007c 0021     		movs	r1, #0
 122 007e 0846     		mov	r0, r1
 123 0080 FFF7FEFF 		bl	motor_forward
 124              	.LVL15:
 418:main.c        ****                         startline = false;
 125              		.loc 1 418 0
 126 0084 0024     		movs	r4, #0
 127              	.LVL16:
 128              	.L3:
 408:main.c        ****                     // read raw sensor values
 129              		.loc 1 408 0
 130 0086 002C     		cmp	r4, #0
 131 0088 E0D1     		bne	.L6
 419:main.c        ****                     }
 420:main.c        ****                 }
 421:main.c        ****             IR_wait();  // wait for IR command
 132              		.loc 1 421 0
 133 008a FFF7FEFF 		bl	IR_wait
 134              	.LVL17:
 422:main.c        ****             led = !led;
 423:main.c        ****             BatteryLed_Write(led);   
 135              		.loc 1 423 0
 136 008e 0120     		movs	r0, #1
 137 0090 FFF7FEFF 		bl	BatteryLed_Write
 138              	.LVL18:
 400:main.c        ****             motor_start();              // enable motor controller 
 139              		.loc 1 400 0
 140 0094 0026     		movs	r6, #0
 399:main.c        ****             int count =0;
 141              		.loc 1 399 0
 142 0096 0124     		movs	r4, #1
 143              	.LVL19:
ARM GAS  C:\Users\ilyap\AppData\Local\Temp\ccciX5uS.s 			page 11


 422:main.c        ****             led = !led;
 144              		.loc 1 422 0
 145 0098 2546     		mov	r5, r4
 424:main.c        ****             
 425:main.c        ****             // Toggle led when IR signal is received
 426:main.c        ****             while(loop)
 146              		.loc 1 426 0
 147 009a 69E0     		b	.L7
 148              	.LVL20:
 149              	.L14:
 427:main.c        ****             {   
 428:main.c        ****                 if(led){
 150              		.loc 1 428 0
 151 009c 002D     		cmp	r5, #0
 152 009e 63D0     		beq	.L8
 429:main.c        ****                     //do {
 430:main.c        ****                         // read raw sensor values
 431:main.c        ****                     reflectance_read(&ref);
 153              		.loc 1 431 0
 154 00a0 02A8     		add	r0, sp, #8
 155 00a2 FFF7FEFF 		bl	reflectance_read
 156              	.LVL21:
 432:main.c        ****                     reflectance_digital(&dig); 
 157              		.loc 1 432 0
 158 00a6 05A8     		add	r0, sp, #20
 159 00a8 FFF7FEFF 		bl	reflectance_digital
 160              	.LVL22:
 433:main.c        ****                     
 434:main.c        ****                     if(dig.l3 == 1 && dig.r3 == 1 ){
 161              		.loc 1 434 0
 162 00ac BDF81430 		ldrh	r3, [sp, #20]
 163 00b0 012B     		cmp	r3, #1
 164 00b2 48D1     		bne	.L9
 165              		.loc 1 434 0 is_stmt 0 discriminator 1
 166 00b4 BDF81E30 		ldrh	r3, [sp, #30]
 167 00b8 012B     		cmp	r3, #1
 168 00ba 44D1     		bne	.L9
 435:main.c        ****                         
 436:main.c        ****                         if(count==1){
 169              		.loc 1 436 0 is_stmt 1
 170 00bc 012E     		cmp	r6, #1
 171 00be 11D1     		bne	.L10
 437:main.c        ****                             count++;
 172              		.loc 1 437 0
 173 00c0 0136     		adds	r6, r6, #1
 174              	.LVL23:
 438:main.c        ****                             motor_turn(225,10,500);       // motor turn
 175              		.loc 1 438 0
 176 00c2 4FF4FA72 		mov	r2, #500
 177 00c6 0A21     		movs	r1, #10
 178 00c8 E120     		movs	r0, #225
 179 00ca FFF7FEFF 		bl	motor_turn
 180              	.LVL24:
 439:main.c        ****                             Beep(20,20);
 181              		.loc 1 439 0
 182 00ce 1421     		movs	r1, #20
 183 00d0 0846     		mov	r0, r1
ARM GAS  C:\Users\ilyap\AppData\Local\Temp\ccciX5uS.s 			page 12


 184 00d2 FFF7FEFF 		bl	Beep
 185              	.LVL25:
 440:main.c        ****                             vTaskDelay(0);
 186              		.loc 1 440 0
 187 00d6 0020     		movs	r0, #0
 188 00d8 FFF7FEFF 		bl	vTaskDelay
 189              	.LVL26:
 441:main.c        ****                             //motor_turn(50,50,50);       // motor forward
 442:main.c        ****                             //Beep(50,50);
 443:main.c        ****                             //vTaskDelay(5);
 444:main.c        ****                             printf("count %d \n",count);
 190              		.loc 1 444 0
 191 00dc 3146     		mov	r1, r6
 192 00de 2948     		ldr	r0, .L17+12
 193 00e0 FFF7FEFF 		bl	printf
 194              	.LVL27:
 195              	.L10:
 445:main.c        ****                         }
 446:main.c        ****                         if(count<=3){
 196              		.loc 1 446 0
 197 00e4 032E     		cmp	r6, #3
 198 00e6 11DC     		bgt	.L11
 447:main.c        ****                             count++;
 199              		.loc 1 447 0
 200 00e8 0136     		adds	r6, r6, #1
 201              	.LVL28:
 448:main.c        ****                             motor_turn(10,225,500);       // motor turn
 202              		.loc 1 448 0
 203 00ea 4FF4FA72 		mov	r2, #500
 204 00ee E121     		movs	r1, #225
 205 00f0 0A20     		movs	r0, #10
 206 00f2 FFF7FEFF 		bl	motor_turn
 207              	.LVL29:
 449:main.c        ****                             Beep(20,20);
 208              		.loc 1 449 0
 209 00f6 1421     		movs	r1, #20
 210 00f8 0846     		mov	r0, r1
 211 00fa FFF7FEFF 		bl	Beep
 212              	.LVL30:
 450:main.c        ****                             vTaskDelay(0);
 213              		.loc 1 450 0
 214 00fe 0020     		movs	r0, #0
 215 0100 FFF7FEFF 		bl	vTaskDelay
 216              	.LVL31:
 451:main.c        ****                             //motor_turn(50,50,50);       // motor forward
 452:main.c        ****                             //Beep(50,50);
 453:main.c        ****                             //vTaskDelay(0);
 454:main.c        ****                             //count++;
 455:main.c        ****                             printf("count %d \n",count);
 217              		.loc 1 455 0
 218 0104 3146     		mov	r1, r6
 219 0106 1F48     		ldr	r0, .L17+12
 220 0108 FFF7FEFF 		bl	printf
 221              	.LVL32:
 222              	.L11:
 456:main.c        ****                         }
 457:main.c        ****                        // printf("count %d \n",count);
ARM GAS  C:\Users\ilyap\AppData\Local\Temp\ccciX5uS.s 			page 13


 458:main.c        ****                         if(count == 4){
 223              		.loc 1 458 0
 224 010c 042E     		cmp	r6, #4
 225 010e 07D1     		bne	.L12
 459:main.c        ****                             motor_forward(0,0);       // Stop motors
 226              		.loc 1 459 0
 227 0110 0021     		movs	r1, #0
 228 0112 0846     		mov	r0, r1
 229 0114 FFF7FEFF 		bl	motor_forward
 230              	.LVL33:
 460:main.c        ****                             led = false;
 461:main.c        ****                             BatteryLed_Write(led);
 231              		.loc 1 461 0
 232 0118 0020     		movs	r0, #0
 233 011a FFF7FEFF 		bl	BatteryLed_Write
 234              	.LVL34:
 460:main.c        ****                             led = false;
 235              		.loc 1 460 0
 236 011e 0025     		movs	r5, #0
 237              	.LVL35:
 238              	.L12:
 462:main.c        ****                             //loop = false;
 463:main.c        ****                         }
 464:main.c        ****                         if (count == 0){
 239              		.loc 1 464 0
 240 0120 36BB     		cbnz	r6, .L7
 465:main.c        ****                             motor_turn(50,50,50);       // motor forward
 241              		.loc 1 465 0
 242 0122 3222     		movs	r2, #50
 243 0124 1146     		mov	r1, r2
 244 0126 1046     		mov	r0, r2
 245 0128 FFF7FEFF 		bl	motor_turn
 246              	.LVL36:
 466:main.c        ****                             vTaskDelay(0);
 247              		.loc 1 466 0
 248 012c 0020     		movs	r0, #0
 249 012e FFF7FEFF 		bl	vTaskDelay
 250              	.LVL37:
 467:main.c        ****                             Beep(50,50);
 251              		.loc 1 467 0
 252 0132 3221     		movs	r1, #50
 253 0134 0846     		mov	r0, r1
 254 0136 FFF7FEFF 		bl	Beep
 255              	.LVL38:
 468:main.c        ****                             count++;
 256              		.loc 1 468 0
 257 013a 0136     		adds	r6, r6, #1
 258              	.LVL39:
 469:main.c        ****                             printf("count %d \n",count);
 259              		.loc 1 469 0
 260 013c 3146     		mov	r1, r6
 261 013e 1148     		ldr	r0, .L17+12
 262 0140 FFF7FEFF 		bl	printf
 263              	.LVL40:
 264 0144 14E0     		b	.L7
 265              	.L9:
 470:main.c        ****                         }
ARM GAS  C:\Users\ilyap\AppData\Local\Temp\ccciX5uS.s 			page 14


 471:main.c        ****                     }
 472:main.c        ****                     else{
 473:main.c        ****                         motor_turn(50,50,50);       // motor forward
 266              		.loc 1 473 0
 267 0146 3222     		movs	r2, #50
 268 0148 1146     		mov	r1, r2
 269 014a 1046     		mov	r0, r2
 270 014c FFF7FEFF 		bl	motor_turn
 271              	.LVL41:
 474:main.c        ****                         vTaskDelay(0);
 272              		.loc 1 474 0
 273 0150 0020     		movs	r0, #0
 274 0152 FFF7FEFF 		bl	vTaskDelay
 275              	.LVL42:
 475:main.c        ****                         Beep(50,50);
 276              		.loc 1 475 0
 277 0156 3221     		movs	r1, #50
 278 0158 0846     		mov	r0, r1
 279 015a FFF7FEFF 		bl	Beep
 280              	.LVL43:
 476:main.c        ****                         //count++;
 477:main.c        ****                         printf("count %d \n",count);
 281              		.loc 1 477 0
 282 015e 3146     		mov	r1, r6
 283 0160 0848     		ldr	r0, .L17+12
 284 0162 FFF7FEFF 		bl	printf
 285              	.LVL44:
 286 0166 03E0     		b	.L7
 287              	.L8:
 478:main.c        ****                         /*if(count == 36){
 479:main.c        ****                             motor_forward(0,0);       // Stop motors
 480:main.c        ****                             led = false;
 481:main.c        ****                         }*/
 482:main.c        ****                     }
 483:main.c        ****                     
 484:main.c        ****                 
 485:main.c        ****                     //}while(led);
 486:main.c        ****                     
 487:main.c        ****                 }
 488:main.c        ****                 else {
 489:main.c        ****                     printf("Led is OFF\n");
 288              		.loc 1 489 0
 289 0168 0748     		ldr	r0, .L17+16
 290 016a FFF7FEFF 		bl	puts
 291              	.LVL45:
 490:main.c        ****                     loop = false;
 292              		.loc 1 490 0
 293 016e 0024     		movs	r4, #0
 294              	.LVL46:
 295              	.L7:
 426:main.c        ****             {   
 296              		.loc 1 426 0
 297 0170 002C     		cmp	r4, #0
 298 0172 93D1     		bne	.L14
 299 0174 49E7     		b	.L2
 300              	.L18:
 301 0176 00BF     		.align	2
ARM GAS  C:\Users\ilyap\AppData\Local\Temp\ccciX5uS.s 			page 15


 302              	.L17:
 303 0178 00000000 		.word	.LC0
 304 017c 08000000 		.word	.LC1
 305 0180 14000000 		.word	.LC2
 306 0184 24000000 		.word	.LC3
 307 0188 30000000 		.word	.LC4
 308              	.LBE2:
 309              		.cfi_endproc
 310              	.LFE85:
 311              		.size	zmain, .-zmain
 312              		.section	.rodata.str1.4,"aMS",%progbits,1
 313              		.align	2
 314              	.LC0:
 315 0000 0A537461 		.ascii	"\012Start\000"
 315      727400
 316 0007 00       		.space	1
 317              	.LC1:
 318 0008 0A0A4952 		.ascii	"\012\012IR test\000"
 318      20746573 
 318      7400
 319 0012 0000     		.space	2
 320              	.LC2:
 321 0014 42756666 		.ascii	"Buffer cleared\000"
 321      65722063 
 321      6C656172 
 321      656400
 322 0023 00       		.space	1
 323              	.LC3:
 324 0024 636F756E 		.ascii	"count %d \012\000"
 324      74202564 
 324      200A00
 325 002f 00       		.space	1
 326              	.LC4:
 327 0030 4C656420 		.ascii	"Led is OFF\000"
 327      6973204F 
 327      464600
 328              		.text
 329              	.Letext0:
 330              		.file 2 "c:\\program files (x86)\\cypress\\psoc creator\\4.2\\psoc creator\\import\\gnu\\arm\\5.4.
 331              		.file 3 "c:\\program files (x86)\\cypress\\psoc creator\\4.2\\psoc creator\\import\\gnu\\arm\\5.4.
 332              		.file 4 ".\\ZumoLibrary/Reflectance.h"
 333              		.file 5 ".\\ZumoLibrary/IR.h"
 334              		.file 6 ".\\ZumoLibrary/Motor.h"
 335              		.file 7 "..\\FreeRTOS\\Source\\include/task.h"
 336              		.file 8 ".\\ZumoLibrary/Beep.h"
 337              		.file 9 "Generated_Source\\PSoC5/BatteryLed.h"
 338              		.file 10 "c:\\program files (x86)\\cypress\\psoc creator\\4.2\\psoc creator\\import\\gnu\\arm\\5.4
 339              		.file 11 "Generated_Source\\PSoC5/SW1.h"
 340              		.file 12 "Generated_Source\\PSoC5/core_cm3.h"
 341              		.file 13 "<built-in>"