ARM GAS  C:\Users\ilyap\AppData\Local\Temp\cchHVtcS.s 			page 1


   1              		.syntax unified
   2              		.cpu cortex-m3
   3              		.fpu softvfp
   4              		.eabi_attribute 20, 1
   5              		.eabi_attribute 21, 1
   6              		.eabi_attribute 23, 3
   7              		.eabi_attribute 24, 1
   8              		.eabi_attribute 25, 1
   9              		.eabi_attribute 26, 1
  10              		.eabi_attribute 30, 1
  11              		.eabi_attribute 34, 1
  12              		.eabi_attribute 18, 4
  13              		.thumb
  14              		.syntax unified
  15              		.file	"Motor.c"
  16              		.text
  17              	.Ltext0:
  18              		.cfi_sections	.debug_frame
  19              		.section	.text.motor_start,"ax",%progbits
  20              		.align	2
  21              		.global	motor_start
  22              		.thumb
  23              		.thumb_func
  24              		.type	motor_start, %function
  25              	motor_start:
  26              	.LFB68:
  27              		.file 1 "ZumoLibrary\\Motor.c"
   1:ZumoLibrary/Motor.c **** /**
   2:ZumoLibrary/Motor.c ****  * @file    Motor.c
   3:ZumoLibrary/Motor.c ****  * @brief   Basic methods for operating motor sensor. For more details, please refer to Motor.h fil
   4:ZumoLibrary/Motor.c ****  * @details included in Zumo shield
   5:ZumoLibrary/Motor.c **** */
   6:ZumoLibrary/Motor.c **** #include "FreeRTOS.h"
   7:ZumoLibrary/Motor.c **** #include "task.h"
   8:ZumoLibrary/Motor.c **** #include "Motor.h"
   9:ZumoLibrary/Motor.c **** 
  10:ZumoLibrary/Motor.c **** 
  11:ZumoLibrary/Motor.c **** /**
  12:ZumoLibrary/Motor.c **** * @brief    Starting motor sensors
  13:ZumoLibrary/Motor.c **** * @details  
  14:ZumoLibrary/Motor.c **** */
  15:ZumoLibrary/Motor.c **** void motor_start()
  16:ZumoLibrary/Motor.c **** {
  28              		.loc 1 16 0
  29              		.cfi_startproc
  30              		@ args = 0, pretend = 0, frame = 0
  31              		@ frame_needed = 0, uses_anonymous_args = 0
  32 0000 08B5     		push	{r3, lr}
  33              		.cfi_def_cfa_offset 8
  34              		.cfi_offset 3, -8
  35              		.cfi_offset 14, -4
  17:ZumoLibrary/Motor.c ****     PWM_Start();
  36              		.loc 1 17 0
  37 0002 FFF7FEFF 		bl	PWM_Start
  38              	.LVL0:
  39 0006 08BD     		pop	{r3, pc}
  40              		.cfi_endproc
ARM GAS  C:\Users\ilyap\AppData\Local\Temp\cchHVtcS.s 			page 2


  41              	.LFE68:
  42              		.size	motor_start, .-motor_start
  43              		.section	.text.motor_stop,"ax",%progbits
  44              		.align	2
  45              		.global	motor_stop
  46              		.thumb
  47              		.thumb_func
  48              		.type	motor_stop, %function
  49              	motor_stop:
  50              	.LFB69:
  18:ZumoLibrary/Motor.c **** }
  19:ZumoLibrary/Motor.c **** 
  20:ZumoLibrary/Motor.c **** 
  21:ZumoLibrary/Motor.c **** /**
  22:ZumoLibrary/Motor.c **** * @brief    Stopping motor sensors
  23:ZumoLibrary/Motor.c **** * @details
  24:ZumoLibrary/Motor.c **** */
  25:ZumoLibrary/Motor.c **** void motor_stop()
  26:ZumoLibrary/Motor.c **** {
  51              		.loc 1 26 0
  52              		.cfi_startproc
  53              		@ args = 0, pretend = 0, frame = 0
  54              		@ frame_needed = 0, uses_anonymous_args = 0
  55 0000 08B5     		push	{r3, lr}
  56              		.cfi_def_cfa_offset 8
  57              		.cfi_offset 3, -8
  58              		.cfi_offset 14, -4
  27:ZumoLibrary/Motor.c ****     PWM_Stop();
  59              		.loc 1 27 0
  60 0002 FFF7FEFF 		bl	PWM_Stop
  61              	.LVL1:
  62 0006 08BD     		pop	{r3, pc}
  63              		.cfi_endproc
  64              	.LFE69:
  65              		.size	motor_stop, .-motor_stop
  66              		.section	.text.motor_forward,"ax",%progbits
  67              		.align	2
  68              		.global	motor_forward
  69              		.thumb
  70              		.thumb_func
  71              		.type	motor_forward, %function
  72              	motor_forward:
  73              	.LFB70:
  28:ZumoLibrary/Motor.c **** }
  29:ZumoLibrary/Motor.c **** 
  30:ZumoLibrary/Motor.c **** 
  31:ZumoLibrary/Motor.c **** /**
  32:ZumoLibrary/Motor.c **** * @brief    Moving motors forward
  33:ZumoLibrary/Motor.c **** * @details  giveing same speed to each side of PWM to make motors go forward
  34:ZumoLibrary/Motor.c **** * @param    uint8 speed : speed value
  35:ZumoLibrary/Motor.c **** * @param    uint32 delay : delay time
  36:ZumoLibrary/Motor.c **** */
  37:ZumoLibrary/Motor.c **** void motor_forward(uint8 speed,uint32 delay)
  38:ZumoLibrary/Motor.c **** {
  74              		.loc 1 38 0
  75              		.cfi_startproc
  76              		@ args = 0, pretend = 0, frame = 0
ARM GAS  C:\Users\ilyap\AppData\Local\Temp\cchHVtcS.s 			page 3


  77              		@ frame_needed = 0, uses_anonymous_args = 0
  78              	.LVL2:
  79 0000 38B5     		push	{r3, r4, r5, lr}
  80              		.cfi_def_cfa_offset 16
  81              		.cfi_offset 3, -16
  82              		.cfi_offset 4, -12
  83              		.cfi_offset 5, -8
  84              		.cfi_offset 14, -4
  85 0002 0446     		mov	r4, r0
  86 0004 0D46     		mov	r5, r1
  39:ZumoLibrary/Motor.c ****     MotorDirLeft_Write(0);      // set LeftMotor forward mode
  87              		.loc 1 39 0
  88 0006 0020     		movs	r0, #0
  89              	.LVL3:
  90 0008 FFF7FEFF 		bl	MotorDirLeft_Write
  91              	.LVL4:
  40:ZumoLibrary/Motor.c ****     MotorDirRight_Write(0);     // set RightMotor forward mode
  92              		.loc 1 40 0
  93 000c 0020     		movs	r0, #0
  94 000e FFF7FEFF 		bl	MotorDirRight_Write
  95              	.LVL5:
  41:ZumoLibrary/Motor.c ****     PWM_WriteCompare1(speed); 
  96              		.loc 1 41 0
  97 0012 2046     		mov	r0, r4
  98 0014 FFF7FEFF 		bl	PWM_WriteCompare1
  99              	.LVL6:
  42:ZumoLibrary/Motor.c ****     PWM_WriteCompare2(speed); 
 100              		.loc 1 42 0
 101 0018 2046     		mov	r0, r4
 102 001a FFF7FEFF 		bl	PWM_WriteCompare2
 103              	.LVL7:
  43:ZumoLibrary/Motor.c ****     vTaskDelay(delay);
 104              		.loc 1 43 0
 105 001e 2846     		mov	r0, r5
 106 0020 FFF7FEFF 		bl	vTaskDelay
 107              	.LVL8:
 108 0024 38BD     		pop	{r3, r4, r5, pc}
 109              		.cfi_endproc
 110              	.LFE70:
 111              		.size	motor_forward, .-motor_forward
 112 0026 00BF     		.section	.text.motor_turn,"ax",%progbits
 113              		.align	2
 114              		.global	motor_turn
 115              		.thumb
 116              		.thumb_func
 117              		.type	motor_turn, %function
 118              	motor_turn:
 119              	.LFB71:
  44:ZumoLibrary/Motor.c **** }
  45:ZumoLibrary/Motor.c **** 
  46:ZumoLibrary/Motor.c **** 
  47:ZumoLibrary/Motor.c **** /**
  48:ZumoLibrary/Motor.c **** * @brief    Moving motors to make a turn 
  49:ZumoLibrary/Motor.c **** * @details  moving left when l_speed < r_speed or moving right when l_speed > r_speed
  50:ZumoLibrary/Motor.c **** * @param    uint8 l_speed : left motor speed value
  51:ZumoLibrary/Motor.c **** * @param    uint8 r_speed : right motor speed value
  52:ZumoLibrary/Motor.c **** * @param    uint32 delay : delay time
ARM GAS  C:\Users\ilyap\AppData\Local\Temp\cchHVtcS.s 			page 4


  53:ZumoLibrary/Motor.c **** */
  54:ZumoLibrary/Motor.c **** void motor_turn(uint8 l_speed, uint8 r_speed, uint32 delay)
  55:ZumoLibrary/Motor.c **** {
 120              		.loc 1 55 0
 121              		.cfi_startproc
 122              		@ args = 0, pretend = 0, frame = 0
 123              		@ frame_needed = 0, uses_anonymous_args = 0
 124              	.LVL9:
 125 0000 38B5     		push	{r3, r4, r5, lr}
 126              		.cfi_def_cfa_offset 16
 127              		.cfi_offset 3, -16
 128              		.cfi_offset 4, -12
 129              		.cfi_offset 5, -8
 130              		.cfi_offset 14, -4
 131 0002 0D46     		mov	r5, r1
 132 0004 1446     		mov	r4, r2
  56:ZumoLibrary/Motor.c ****     PWM_WriteCompare1(l_speed); 
 133              		.loc 1 56 0
 134 0006 FFF7FEFF 		bl	PWM_WriteCompare1
 135              	.LVL10:
  57:ZumoLibrary/Motor.c ****     PWM_WriteCompare2(r_speed); 
 136              		.loc 1 57 0
 137 000a 2846     		mov	r0, r5
 138 000c FFF7FEFF 		bl	PWM_WriteCompare2
 139              	.LVL11:
  58:ZumoLibrary/Motor.c ****     vTaskDelay(delay);
 140              		.loc 1 58 0
 141 0010 2046     		mov	r0, r4
 142 0012 FFF7FEFF 		bl	vTaskDelay
 143              	.LVL12:
 144 0016 38BD     		pop	{r3, r4, r5, pc}
 145              		.cfi_endproc
 146              	.LFE71:
 147              		.size	motor_turn, .-motor_turn
 148              		.section	.text.motor_backward,"ax",%progbits
 149              		.align	2
 150              		.global	motor_backward
 151              		.thumb
 152              		.thumb_func
 153              		.type	motor_backward, %function
 154              	motor_backward:
 155              	.LFB72:
  59:ZumoLibrary/Motor.c **** }
  60:ZumoLibrary/Motor.c **** 
  61:ZumoLibrary/Motor.c **** 
  62:ZumoLibrary/Motor.c **** /**
  63:ZumoLibrary/Motor.c **** * @brief    Moving motors backward
  64:ZumoLibrary/Motor.c **** * @details  setting backward mode to each motors and gives same speed to each side of PWM
  65:ZumoLibrary/Motor.c **** * @param    uint8 speed : speed value
  66:ZumoLibrary/Motor.c **** * @param    uint32 delay : delay time
  67:ZumoLibrary/Motor.c **** */
  68:ZumoLibrary/Motor.c **** void motor_backward(uint8 speed,uint32 delay)
  69:ZumoLibrary/Motor.c **** {
 156              		.loc 1 69 0
 157              		.cfi_startproc
 158              		@ args = 0, pretend = 0, frame = 0
 159              		@ frame_needed = 0, uses_anonymous_args = 0
ARM GAS  C:\Users\ilyap\AppData\Local\Temp\cchHVtcS.s 			page 5


 160              	.LVL13:
 161 0000 38B5     		push	{r3, r4, r5, lr}
 162              		.cfi_def_cfa_offset 16
 163              		.cfi_offset 3, -16
 164              		.cfi_offset 4, -12
 165              		.cfi_offset 5, -8
 166              		.cfi_offset 14, -4
 167 0002 0446     		mov	r4, r0
 168 0004 0D46     		mov	r5, r1
  70:ZumoLibrary/Motor.c ****     MotorDirLeft_Write(1);      // set LeftMotor backward mode
 169              		.loc 1 70 0
 170 0006 0120     		movs	r0, #1
 171              	.LVL14:
 172 0008 FFF7FEFF 		bl	MotorDirLeft_Write
 173              	.LVL15:
  71:ZumoLibrary/Motor.c ****     MotorDirRight_Write(1);     // set RightMotor backward mode
 174              		.loc 1 71 0
 175 000c 0120     		movs	r0, #1
 176 000e FFF7FEFF 		bl	MotorDirRight_Write
 177              	.LVL16:
  72:ZumoLibrary/Motor.c ****     PWM_WriteCompare1(speed); 
 178              		.loc 1 72 0
 179 0012 2046     		mov	r0, r4
 180 0014 FFF7FEFF 		bl	PWM_WriteCompare1
 181              	.LVL17:
  73:ZumoLibrary/Motor.c ****     PWM_WriteCompare2(speed); 
 182              		.loc 1 73 0
 183 0018 2046     		mov	r0, r4
 184 001a FFF7FEFF 		bl	PWM_WriteCompare2
 185              	.LVL18:
  74:ZumoLibrary/Motor.c ****     vTaskDelay(delay);
 186              		.loc 1 74 0
 187 001e 2846     		mov	r0, r5
 188 0020 FFF7FEFF 		bl	vTaskDelay
 189              	.LVL19:
 190 0024 38BD     		pop	{r3, r4, r5, pc}
 191              		.cfi_endproc
 192              	.LFE72:
 193              		.size	motor_backward, .-motor_backward
 194 0026 00BF     		.section	.text.motor_turn_left,"ax",%progbits
 195              		.align	2
 196              		.global	motor_turn_left
 197              		.thumb
 198              		.thumb_func
 199              		.type	motor_turn_left, %function
 200              	motor_turn_left:
 201              	.LFB73:
  75:ZumoLibrary/Motor.c **** }
  76:ZumoLibrary/Motor.c **** 
  77:ZumoLibrary/Motor.c **** /**
  78:ZumoLibrary/Motor.c **** * @brief    Moving motors left
  79:ZumoLibrary/Motor.c **** * @details  setting backward mode to each motors and gives same speed to each side of PWM
  80:ZumoLibrary/Motor.c **** * @param    uint8 speed : speed value
  81:ZumoLibrary/Motor.c **** * @param    uint32 delay : delay time
  82:ZumoLibrary/Motor.c **** */
  83:ZumoLibrary/Motor.c **** void motor_turn_left(uint8 speed1, uint8 speed2,uint32 delay)
  84:ZumoLibrary/Motor.c **** {
ARM GAS  C:\Users\ilyap\AppData\Local\Temp\cchHVtcS.s 			page 6


 202              		.loc 1 84 0
 203              		.cfi_startproc
 204              		@ args = 0, pretend = 0, frame = 0
 205              		@ frame_needed = 0, uses_anonymous_args = 0
 206              	.LVL20:
 207 0000 70B5     		push	{r4, r5, r6, lr}
 208              		.cfi_def_cfa_offset 16
 209              		.cfi_offset 4, -16
 210              		.cfi_offset 5, -12
 211              		.cfi_offset 6, -8
 212              		.cfi_offset 14, -4
 213 0002 0646     		mov	r6, r0
 214 0004 0D46     		mov	r5, r1
 215 0006 1446     		mov	r4, r2
  85:ZumoLibrary/Motor.c ****     MotorDirLeft_Write(1);      // set LeftMotor backward mode
 216              		.loc 1 85 0
 217 0008 0120     		movs	r0, #1
 218              	.LVL21:
 219 000a FFF7FEFF 		bl	MotorDirLeft_Write
 220              	.LVL22:
  86:ZumoLibrary/Motor.c ****     MotorDirRight_Write(0);     // set RightMotor backward mode
 221              		.loc 1 86 0
 222 000e 0020     		movs	r0, #0
 223 0010 FFF7FEFF 		bl	MotorDirRight_Write
 224              	.LVL23:
  87:ZumoLibrary/Motor.c ****     PWM_WriteCompare1(speed1); 
 225              		.loc 1 87 0
 226 0014 3046     		mov	r0, r6
 227 0016 FFF7FEFF 		bl	PWM_WriteCompare1
 228              	.LVL24:
  88:ZumoLibrary/Motor.c ****     PWM_WriteCompare2(speed2); 
 229              		.loc 1 88 0
 230 001a 2846     		mov	r0, r5
 231 001c FFF7FEFF 		bl	PWM_WriteCompare2
 232              	.LVL25:
  89:ZumoLibrary/Motor.c ****     vTaskDelay(delay);
 233              		.loc 1 89 0
 234 0020 2046     		mov	r0, r4
 235 0022 FFF7FEFF 		bl	vTaskDelay
 236              	.LVL26:
 237 0026 70BD     		pop	{r4, r5, r6, pc}
 238              		.cfi_endproc
 239              	.LFE73:
 240              		.size	motor_turn_left, .-motor_turn_left
 241              		.section	.text.motor_turn_right,"ax",%progbits
 242              		.align	2
 243              		.global	motor_turn_right
 244              		.thumb
 245              		.thumb_func
 246              		.type	motor_turn_right, %function
 247              	motor_turn_right:
 248              	.LFB74:
  90:ZumoLibrary/Motor.c **** }
  91:ZumoLibrary/Motor.c **** 
  92:ZumoLibrary/Motor.c **** /**
  93:ZumoLibrary/Motor.c **** * @brief    Moving motors right
  94:ZumoLibrary/Motor.c **** * @details  setting backward mode to each motors and gives same speed to each side of PWM
ARM GAS  C:\Users\ilyap\AppData\Local\Temp\cchHVtcS.s 			page 7


  95:ZumoLibrary/Motor.c **** * @param    uint8 speed : speed value
  96:ZumoLibrary/Motor.c **** * @param    uint32 delay : delay time
  97:ZumoLibrary/Motor.c **** */
  98:ZumoLibrary/Motor.c **** void motor_turn_right(uint8 speed1, uint8 speed2,uint32 delay)
  99:ZumoLibrary/Motor.c **** {
 249              		.loc 1 99 0
 250              		.cfi_startproc
 251              		@ args = 0, pretend = 0, frame = 0
 252              		@ frame_needed = 0, uses_anonymous_args = 0
 253              	.LVL27:
 254 0000 70B5     		push	{r4, r5, r6, lr}
 255              		.cfi_def_cfa_offset 16
 256              		.cfi_offset 4, -16
 257              		.cfi_offset 5, -12
 258              		.cfi_offset 6, -8
 259              		.cfi_offset 14, -4
 260 0002 0646     		mov	r6, r0
 261 0004 0D46     		mov	r5, r1
 262 0006 1446     		mov	r4, r2
 100:ZumoLibrary/Motor.c ****     MotorDirLeft_Write(0);      // set LeftMotor backward mode
 263              		.loc 1 100 0
 264 0008 0020     		movs	r0, #0
 265              	.LVL28:
 266 000a FFF7FEFF 		bl	MotorDirLeft_Write
 267              	.LVL29:
 101:ZumoLibrary/Motor.c ****     MotorDirRight_Write(1);     // set RightMotor backward mode
 268              		.loc 1 101 0
 269 000e 0120     		movs	r0, #1
 270 0010 FFF7FEFF 		bl	MotorDirRight_Write
 271              	.LVL30:
 102:ZumoLibrary/Motor.c ****     PWM_WriteCompare1(speed1); 
 272              		.loc 1 102 0
 273 0014 3046     		mov	r0, r6
 274 0016 FFF7FEFF 		bl	PWM_WriteCompare1
 275              	.LVL31:
 103:ZumoLibrary/Motor.c ****     PWM_WriteCompare2(speed2); 
 276              		.loc 1 103 0
 277 001a 2846     		mov	r0, r5
 278 001c FFF7FEFF 		bl	PWM_WriteCompare2
 279              	.LVL32:
 104:ZumoLibrary/Motor.c ****     vTaskDelay(delay);
 280              		.loc 1 104 0
 281 0020 2046     		mov	r0, r4
 282 0022 FFF7FEFF 		bl	vTaskDelay
 283              	.LVL33:
 284 0026 70BD     		pop	{r4, r5, r6, pc}
 285              		.cfi_endproc
 286              	.LFE74:
 287              		.size	motor_turn_right, .-motor_turn_right
 288              		.text
 289              	.Letext0:
 290              		.file 2 "c:\\program files (x86)\\cypress\\psoc creator\\4.2\\psoc creator\\import\\gnu\\arm\\5.4.
 291              		.file 3 "c:\\program files (x86)\\cypress\\psoc creator\\4.2\\psoc creator\\import\\gnu\\arm\\5.4.
 292              		.file 4 "Generated_Source\\PSoC5/cytypes.h"
 293              		.file 5 "Generated_Source\\PSoC5/PWM.h"
 294              		.file 6 "Generated_Source\\PSoC5/MotorDirLeft.h"
 295              		.file 7 "Generated_Source\\PSoC5/MotorDirRight.h"
ARM GAS  C:\Users\ilyap\AppData\Local\Temp\cchHVtcS.s 			page 8


 296              		.file 8 "..\\FreeRTOS\\Source\\include/task.h"
 297              		.file 9 "Generated_Source\\PSoC5/core_cm3.h"